target datalayout = "e-m:e-p270:32:32-p271:32:32-p272:64:64-i64:64-i128:128-f80:128-n8:16:32:64-S128"
target triple = "x86_64-pc-linux-gnu"

%struct.H5VL_connector_t = type { ptr, i64, ptr, ptr }
%struct.H5VL_connector_prop_t = type { ptr, ptr }
%struct.H5VL_object_t = type { ptr, ptr, i64 }
%struct.H5VL_file_specific_args_t = type { i32, %union.anon.0 }
%union.anon.0 = type { %struct.anon.2 }
%struct.anon.2 = type { ptr, i64, ptr }
%struct.anon.3 = type { ptr, i64 }

@.str = private unnamed_addr constant [106 x i8] c"generated/home/dtcxzyw/WorkSpace/Projects/compilers/llvm-opt-benchmark/bench/hdf5/hdf5/src/H5VLcallback.c\00", align 1
@H5E_BADTYPE_g = external global i64, align 8
@H5E_CANTSET_g = external global i64, align 8
@H5E_VOL_g = external global i64, align 8
@H5VL_init_g = external global i8, align 1
@H5_libterm_g = external global i8, align 1
@H5E_FUNC_g = external global i64, align 8
@H5E_CANTINIT_g = external global i64, align 8
@.str.5 = private unnamed_addr constant [32 x i8] c"interface initialization failed\00", align 1
@H5E_CANTGET_g = external global i64, align 8
@.str.24 = private unnamed_addr constant [27 x i8] c"can't set VOL wrapper info\00", align 1
@H5E_CANTRESET_g = external global i64, align 8
@.str.26 = private unnamed_addr constant [29 x i8] c"can't reset VOL wrapper info\00", align 1
@H5E_CANTOPERATE_g = external global i64, align 8
@.str.84 = private unnamed_addr constant [32 x i8] c"not a file access property list\00", align 1
@.str.85 = private unnamed_addr constant [19 x i8] c"vol_connector_info\00", align 1
@.str.86 = private unnamed_addr constant [29 x i8] c"can't get VOL connector info\00", align 1
@__func__.H5VL_file_specific = private unnamed_addr constant [19 x i8] c"H5VL_file_specific\00", align 1
@.str.94 = private unnamed_addr constant [21 x i8] c"file specific failed\00", align 1

; Function Attrs: nounwind uwtable
define i32 @H5VL_file_specific(ptr noundef %0, ptr noundef %1, i64 noundef %2, ptr noundef %3) #0 {
  %5 = alloca i32, align 4
  %6 = alloca ptr, align 8
  %7 = alloca ptr, align 8
  %8 = alloca i64, align 8
  %9 = alloca ptr, align 8
  %10 = alloca ptr, align 8
  %11 = alloca i8, align 1
  %12 = alloca i32, align 4
  %13 = alloca i8, align 1
  %14 = alloca ptr, align 8
  %15 = alloca %struct.H5VL_connector_prop_t, align 8
  %16 = alloca i64, align 8
  %17 = alloca i32, align 4
  store ptr %0, ptr %6, align 8, !tbaa !58
  store ptr %1, ptr %7, align 8, !tbaa !128
  store i64 %2, ptr %8, align 8, !tbaa !3
  store ptr %3, ptr %9, align 8, !tbaa !42
  call void @llvm.lifetime.start.p0(i64 8, ptr %10) #8
  call void @llvm.lifetime.start.p0(i64 1, ptr %11) #8
  store i8 0, ptr %11, align 1, !tbaa !9
  call void @llvm.lifetime.start.p0(i64 4, ptr %12) #8
  store i32 0, ptr %12, align 4, !tbaa !7
  call void @llvm.lifetime.start.p0(i64 1, ptr %13) #8
  store i8 0, ptr %13, align 1, !tbaa !9
  %18 = load i8, ptr @H5VL_init_g, align 1, !tbaa !9, !range !14, !noundef !15
  %19 = trunc i8 %18 to i1
  br i1 %19, label %24, label %20

20:                                               ; preds = %4
  %21 = load i8, ptr @H5_libterm_g, align 1, !tbaa !9, !range !14, !noundef !15
  %22 = trunc i8 %21 to i1
  %23 = xor i1 %22, true
  br label %24

24:                                               ; preds = %20, %4
  %25 = phi i1 [ false, %4 ], [ %23, %20 ]
  %26 = xor i1 %25, true
  %27 = xor i1 %26, true
  %28 = zext i1 %27 to i32
  %29 = sext i32 %28 to i64
  %30 = call i64 @llvm.expect.i64(i64 %29, i64 0)
  %31 = icmp ne i64 %30, 0
  br i1 %31, label %32, label %55

32:                                               ; preds = %24
  store i8 1, ptr @H5VL_init_g, align 1, !tbaa !9
  %33 = call i32 @H5VL__init_package()
  %34 = icmp slt i32 %33, 0
  br i1 %34, label %35, label %54

35:                                               ; preds = %32
  store i8 0, ptr @H5VL_init_g, align 1, !tbaa !9
  br label %36

36:                                               ; preds = %35
  br label %37

37:                                               ; preds = %36
  br label %38

38:                                               ; preds = %37
  %39 = load i64, ptr @H5E_FUNC_g, align 8, !tbaa !3
  %40 = load i64, ptr @H5E_CANTINIT_g, align 8, !tbaa !3
  %41 = call i32 (ptr, ptr, i32, i64, i64, ptr, ...) @H5E_printf_stack(ptr noundef @.str, ptr noundef @__func__.H5VL_file_specific, i32 noundef 4068, i64 noundef %39, i64 noundef %40, ptr noundef @.str.5)
  br label %42

42:                                               ; preds = %38
  br label %43

43:                                               ; preds = %42
  store i8 1, ptr %13, align 1, !tbaa !9
  %44 = load i8, ptr %13, align 1, !tbaa !9, !range !14, !noundef !15
  %45 = trunc i8 %44 to i1
  %46 = zext i1 %45 to i8
  store i8 %46, ptr %13, align 1, !tbaa !9
  br label %47

47:                                               ; preds = %43
  br label %48

48:                                               ; preds = %47
  br label %49

49:                                               ; preds = %48
  store i32 -1, ptr %12, align 4, !tbaa !7
  br label %214

50:                                               ; No predecessors!
  br label %51

51:                                               ; preds = %50
  br label %52

52:                                               ; preds = %51
  br label %53

53:                                               ; preds = %52
  br label %54

54:                                               ; preds = %53, %32
  br label %55

55:                                               ; preds = %54, %24
  %56 = load i8, ptr @H5VL_init_g, align 1, !tbaa !9, !range !14, !noundef !15
  %57 = trunc i8 %56 to i1
  br i1 %57, label %62, label %58

58:                                               ; preds = %55
  %59 = load i8, ptr @H5_libterm_g, align 1, !tbaa !9, !range !14, !noundef !15
  %60 = trunc i8 %59 to i1
  %61 = xor i1 %60, true
  br label %62

62:                                               ; preds = %58, %55
  %63 = phi i1 [ true, %55 ], [ %61, %58 ]
  %64 = xor i1 %63, true
  %65 = xor i1 %64, true
  %66 = zext i1 %65 to i32
  %67 = sext i32 %66 to i64
  %68 = call i64 @llvm.expect.i64(i64 %67, i64 1)
  %69 = icmp ne i64 %68, 0
  br i1 %69, label %70, label %237

70:                                               ; preds = %62
  %71 = load ptr, ptr %7, align 8, !tbaa !128
  %72 = getelementptr inbounds nuw %struct.H5VL_file_specific_args_t, ptr %71, i32 0, i32 0
  %73 = load i32, ptr %72, align 8, !tbaa !122
  %74 = icmp eq i32 %73, 2
  br i1 %74, label %80, label %75

75:                                               ; preds = %70
  %76 = load ptr, ptr %7, align 8, !tbaa !128
  %77 = getelementptr inbounds nuw %struct.H5VL_file_specific_args_t, ptr %76, i32 0, i32 0
  %78 = load i32, ptr %77, align 8, !tbaa !122
  %79 = icmp eq i32 %78, 3
  br i1 %79, label %80, label %149

80:                                               ; preds = %75, %70
  call void @llvm.lifetime.start.p0(i64 8, ptr %14) #8
  call void @llvm.lifetime.start.p0(i64 16, ptr %15) #8
  call void @llvm.lifetime.start.p0(i64 8, ptr %16) #8
  %81 = load ptr, ptr %7, align 8, !tbaa !128
  %82 = getelementptr inbounds nuw %struct.H5VL_file_specific_args_t, ptr %81, i32 0, i32 0
  %83 = load i32, ptr %82, align 8, !tbaa !122
  %84 = icmp eq i32 %83, 2
  br i1 %84, label %85, label %90

85:                                               ; preds = %80
  %86 = load ptr, ptr %7, align 8, !tbaa !128
  %87 = getelementptr inbounds nuw %struct.H5VL_file_specific_args_t, ptr %86, i32 0, i32 1
  %88 = getelementptr inbounds nuw %struct.anon.2, ptr %87, i32 0, i32 1
  %89 = load i64, ptr %88, align 8, !tbaa !124
  store i64 %89, ptr %16, align 8, !tbaa !3
  br label %95

90:                                               ; preds = %80
  %91 = load ptr, ptr %7, align 8, !tbaa !128
  %92 = getelementptr inbounds nuw %struct.H5VL_file_specific_args_t, ptr %91, i32 0, i32 1
  %93 = getelementptr inbounds nuw %struct.anon.3, ptr %92, i32 0, i32 1
  %94 = load i64, ptr %93, align 8, !tbaa !124
  store i64 %94, ptr %16, align 8, !tbaa !3
  br label %95

95:                                               ; preds = %90, %85
  %96 = load i64, ptr %16, align 8, !tbaa !3
  %97 = call ptr @H5I_object(i64 noundef %96)
  store ptr %97, ptr %14, align 8, !tbaa !110
  %98 = icmp eq ptr null, %97
  br i1 %98, label %99, label %118

99:                                               ; preds = %95
  br label %100

100:                                              ; preds = %99
  br label %101

101:                                              ; preds = %100
  br label %102

102:                                              ; preds = %101
  %103 = load i64, ptr @H5E_VOL_g, align 8, !tbaa !3
  %104 = load i64, ptr @H5E_BADTYPE_g, align 8, !tbaa !3
  %105 = call i32 (ptr, ptr, i32, i64, i64, ptr, ...) @H5E_printf_stack(ptr noundef @.str, ptr noundef @__func__.H5VL_file_specific, i32 noundef 4087, i64 noundef %103, i64 noundef %104, ptr noundef @.str.84)
  br label %106

106:                                              ; preds = %102
  br label %107

107:                                              ; preds = %106
  store i8 1, ptr %13, align 1, !tbaa !9
  %108 = load i8, ptr %13, align 1, !tbaa !9, !range !14, !noundef !15
  %109 = trunc i8 %108 to i1
  %110 = zext i1 %109 to i8
  store i8 %110, ptr %13, align 1, !tbaa !9
  br label %111

111:                                              ; preds = %107
  br label %112

112:                                              ; preds = %111
  br label %113

113:                                              ; preds = %112
  store i32 -1, ptr %12, align 4, !tbaa !7
  store i32 10, ptr %17, align 4
  br label %146

114:                                              ; No predecessors!
  br label %115

115:                                              ; preds = %114
  br label %116

116:                                              ; preds = %115
  br label %117

117:                                              ; preds = %116
  br label %118

118:                                              ; preds = %117, %95
  %119 = load ptr, ptr %14, align 8, !tbaa !110
  %120 = call i32 @H5P_peek(ptr noundef %119, ptr noundef @.str.85, ptr noundef %15)
  %121 = icmp slt i32 %120, 0
  br i1 %121, label %122, label %141

122:                                              ; preds = %118
  br label %123

123:                                              ; preds = %122
  br label %124

124:                                              ; preds = %123
  br label %125

125:                                              ; preds = %124
  %126 = load i64, ptr @H5E_VOL_g, align 8, !tbaa !3
  %127 = load i64, ptr @H5E_CANTGET_g, align 8, !tbaa !3
  %128 = call i32 (ptr, ptr, i32, i64, i64, ptr, ...) @H5E_printf_stack(ptr noundef @.str, ptr noundef @__func__.H5VL_file_specific, i32 noundef 4089, i64 noundef %126, i64 noundef %127, ptr noundef @.str.86)
  br label %129

129:                                              ; preds = %125
  br label %130

130:                                              ; preds = %129
  store i8 1, ptr %13, align 1, !tbaa !9
  %131 = load i8, ptr %13, align 1, !tbaa !9, !range !14, !noundef !15
  %132 = trunc i8 %131 to i1
  %133 = zext i1 %132 to i8
  store i8 %133, ptr %13, align 1, !tbaa !9
  br label %134

134:                                              ; preds = %130
  br label %135

135:                                              ; preds = %134
  br label %136

136:                                              ; preds = %135
  store i32 -1, ptr %12, align 4, !tbaa !7
  store i32 10, ptr %17, align 4
  br label %146

137:                                              ; No predecessors!
  br label %138

138:                                              ; preds = %137
  br label %139

139:                                              ; preds = %138
  br label %140

140:                                              ; preds = %139
  br label %141

141:                                              ; preds = %140, %118
  %142 = getelementptr inbounds nuw %struct.H5VL_connector_prop_t, ptr %15, i32 0, i32 0
  %143 = load ptr, ptr %142, align 8, !tbaa !112
  %144 = getelementptr inbounds nuw %struct.H5VL_connector_t, ptr %143, i32 0, i32 0
  %145 = load ptr, ptr %144, align 8, !tbaa !16
  store ptr %145, ptr %10, align 8, !tbaa !54
  store i32 0, ptr %17, align 4
  br label %146

146:                                              ; preds = %136, %113, %141
  call void @llvm.lifetime.end.p0(i64 8, ptr %16) #8
  call void @llvm.lifetime.end.p0(i64 16, ptr %15) #8
  call void @llvm.lifetime.end.p0(i64 8, ptr %14) #8
  %147 = load i32, ptr %17, align 4
  switch i32 %147, label %239 [
    i32 0, label %148
    i32 10, label %214
  ]

148:                                              ; preds = %146
  br label %178

149:                                              ; preds = %75
  %150 = load ptr, ptr %6, align 8, !tbaa !58
  %151 = call i32 @H5VL_set_vol_wrapper(ptr noundef %150)
  %152 = icmp slt i32 %151, 0
  br i1 %152, label %153, label %172

153:                                              ; preds = %149
  br label %154

154:                                              ; preds = %153
  br label %155

155:                                              ; preds = %154
  br label %156

156:                                              ; preds = %155
  %157 = load i64, ptr @H5E_VOL_g, align 8, !tbaa !3
  %158 = load i64, ptr @H5E_CANTSET_g, align 8, !tbaa !3
  %159 = call i32 (ptr, ptr, i32, i64, i64, ptr, ...) @H5E_printf_stack(ptr noundef @.str, ptr noundef @__func__.H5VL_file_specific, i32 noundef 4100, i64 noundef %157, i64 noundef %158, ptr noundef @.str.24)
  br label %160

160:                                              ; preds = %156
  br label %161

161:                                              ; preds = %160
  store i8 1, ptr %13, align 1, !tbaa !9
  %162 = load i8, ptr %13, align 1, !tbaa !9, !range !14, !noundef !15
  %163 = trunc i8 %162 to i1
  %164 = zext i1 %163 to i8
  store i8 %164, ptr %13, align 1, !tbaa !9
  br label %165

165:                                              ; preds = %161
  br label %166

166:                                              ; preds = %165
  br label %167

167:                                              ; preds = %166
  store i32 -1, ptr %12, align 4, !tbaa !7
  br label %214

168:                                              ; No predecessors!
  br label %169

169:                                              ; preds = %168
  br label %170

170:                                              ; preds = %169
  br label %171

171:                                              ; preds = %170
  br label %172

172:                                              ; preds = %171, %149
  store i8 1, ptr %11, align 1, !tbaa !9
  %173 = load ptr, ptr %6, align 8, !tbaa !58
  %174 = getelementptr inbounds nuw %struct.H5VL_object_t, ptr %173, i32 0, i32 1
  %175 = load ptr, ptr %174, align 8, !tbaa !64
  %176 = getelementptr inbounds nuw %struct.H5VL_connector_t, ptr %175, i32 0, i32 0
  %177 = load ptr, ptr %176, align 8, !tbaa !16
  store ptr %177, ptr %10, align 8, !tbaa !54
  br label %178

178:                                              ; preds = %172, %148
  %179 = load ptr, ptr %6, align 8, !tbaa !58
  %180 = icmp ne ptr %179, null
  br i1 %180, label %181, label %185

181:                                              ; preds = %178
  %182 = load ptr, ptr %6, align 8, !tbaa !58
  %183 = getelementptr inbounds nuw %struct.H5VL_object_t, ptr %182, i32 0, i32 0
  %184 = load ptr, ptr %183, align 8, !tbaa !62
  br label %186

185:                                              ; preds = %178
  br label %186

186:                                              ; preds = %185, %181
  %187 = phi ptr [ %184, %181 ], [ null, %185 ]
  %188 = load ptr, ptr %10, align 8, !tbaa !54
  %189 = load ptr, ptr %7, align 8, !tbaa !128
  %190 = load i64, ptr %8, align 8, !tbaa !3
  %191 = load ptr, ptr %9, align 8, !tbaa !42
  %192 = call i32 @H5VL__file_specific(ptr noundef %187, ptr noundef %188, ptr noundef %189, i64 noundef %190, ptr noundef %191)
  %193 = icmp slt i32 %192, 0
  br i1 %193, label %194, label %213

194:                                              ; preds = %186
  br label %195

195:                                              ; preds = %194
  br label %196

196:                                              ; preds = %195
  br label %197

197:                                              ; preds = %196
  %198 = load i64, ptr @H5E_VOL_g, align 8, !tbaa !3
  %199 = load i64, ptr @H5E_CANTOPERATE_g, align 8, !tbaa !3
  %200 = call i32 (ptr, ptr, i32, i64, i64, ptr, ...) @H5E_printf_stack(ptr noundef @.str, ptr noundef @__func__.H5VL_file_specific, i32 noundef 4109, i64 noundef %198, i64 noundef %199, ptr noundef @.str.94)
  br label %201

201:                                              ; preds = %197
  br label %202

202:                                              ; preds = %201
  store i8 1, ptr %13, align 1, !tbaa !9
  %203 = load i8, ptr %13, align 1, !tbaa !9, !range !14, !noundef !15
  %204 = trunc i8 %203 to i1
  %205 = zext i1 %204 to i8
  store i8 %205, ptr %13, align 1, !tbaa !9
  br label %206

206:                                              ; preds = %202
  br label %207

207:                                              ; preds = %206
  br label %208

208:                                              ; preds = %207
  store i32 -1, ptr %12, align 4, !tbaa !7
  br label %214

209:                                              ; No predecessors!
  br label %210

210:                                              ; preds = %209
  br label %211

211:                                              ; preds = %210
  br label %212

212:                                              ; preds = %211
  br label %213

213:                                              ; preds = %212, %186
  br label %214

214:                                              ; preds = %213, %146, %208, %167, %49
  %215 = load i8, ptr %11, align 1, !tbaa !9, !range !14, !noundef !15
  %216 = trunc i8 %215 to i1
  br i1 %216, label %217, label %236

217:                                              ; preds = %214
  %218 = call i32 @H5VL_reset_vol_wrapper()
  %219 = icmp slt i32 %218, 0
  br i1 %219, label %220, label %236

220:                                              ; preds = %217
  br label %221

221:                                              ; preds = %220
  br label %222

222:                                              ; preds = %221
  br label %223

223:                                              ; preds = %222
  %224 = load i64, ptr @H5E_VOL_g, align 8, !tbaa !3
  %225 = load i64, ptr @H5E_CANTRESET_g, align 8, !tbaa !3
  %226 = call i32 (ptr, ptr, i32, i64, i64, ptr, ...) @H5E_printf_stack(ptr noundef @.str, ptr noundef @__func__.H5VL_file_specific, i32 noundef 4114, i64 noundef %224, i64 noundef %225, ptr noundef @.str.26)
  br label %227

227:                                              ; preds = %223
  br label %228

228:                                              ; preds = %227
  store i8 1, ptr %13, align 1, !tbaa !9
  %229 = load i8, ptr %13, align 1, !tbaa !9, !range !14, !noundef !15
  %230 = trunc i8 %229 to i1
  %231 = zext i1 %230 to i8
  store i8 %231, ptr %13, align 1, !tbaa !9
  br label %232

232:                                              ; preds = %228
  br label %233

233:                                              ; preds = %232
  store i32 -1, ptr %12, align 4, !tbaa !7
  br label %234

234:                                              ; preds = %233
  br label %235

235:                                              ; preds = %234
  br label %236

236:                                              ; preds = %235, %217, %214
  br label %237

237:                                              ; preds = %236, %62
  %238 = load i32, ptr %12, align 4, !tbaa !7
  store i32 %238, ptr %5, align 4
  store i32 1, ptr %17, align 4
  br label %239

239:                                              ; preds = %237, %146
  call void @llvm.lifetime.end.p0(i64 1, ptr %13) #8
  call void @llvm.lifetime.end.p0(i64 4, ptr %12) #8
  call void @llvm.lifetime.end.p0(i64 1, ptr %11) #8
  call void @llvm.lifetime.end.p0(i64 8, ptr %10) #8
  %240 = load i32, ptr %5, align 4
  ret i32 %240
}