; Function Attrs: nounwind uwtable
define range(i32 -1, 1) i32 @H5VL_file_specific(ptr noundef %0, ptr noundef %1, i64 noundef %2, ptr noundef %3) local_unnamed_addr #0 {
  %5 = alloca %struct.H5VL_connector_prop_t, align 8
  %6 = load i8, ptr @H5VL_init_g, align 1, !tbaa !33, !range !35, !noundef !36
  %7 = trunc nuw i8 %6 to i1
  %8 = load i8, ptr @H5_libterm_g, align 1, !range !35
  %9 = trunc nuw i8 %8 to i1
  %10 = select i1 %7, i1 true, i1 %9
  br i1 %10, label %18, label %11, !prof !37

11:                                               ; preds = %4
  store i8 1, ptr @H5VL_init_g, align 1, !tbaa !33
  %12 = tail call i32 @H5VL__init_package() #7
  %13 = icmp slt i32 %12, 0
  br i1 %13, label %14, label %._crit_edge

._crit_edge:                                      ; preds = %11
  %.pre = load i8, ptr @H5VL_init_g, align 1, !tbaa !33, !range !35
  %.pre52 = load i8, ptr @H5_libterm_g, align 1, !range !35
  %.pre53 = trunc nuw i8 %.pre to i1
  %.pre54 = trunc nuw i8 %.pre52 to i1
  br label %18

14:                                               ; preds = %11
  store i8 0, ptr @H5VL_init_g, align 1, !tbaa !33
  %15 = load i64, ptr @H5E_FUNC_g, align 8, !tbaa !3
  %16 = load i64, ptr @H5E_CANTINIT_g, align 8, !tbaa !3
  %17 = tail call i32 (ptr, ptr, i32, i64, i64, ptr, ...) @H5E_printf_stack(ptr noundef nonnull @.str, ptr noundef nonnull @__func__.H5VL_file_specific, i32 noundef 4068, i64 noundef %15, i64 noundef %16, ptr noundef nonnull @.str.5) #7
  br label %.thread49

18:                                               ; preds = %._crit_edge, %4
  %.pre-phi55 = phi i1 [ %.pre54, %._crit_edge ], [ %9, %4 ]
  %.pre-phi = phi i1 [ %.pre53, %._crit_edge ], [ %7, %4 ]
  %19 = xor i1 %.pre-phi55, true
  %20 = select i1 %.pre-phi, i1 true, i1 %19
  br i1 %20, label %21, label %.thread49, !prof !37

21:                                               ; preds = %18
  %22 = load i32, ptr %1, align 8, !tbaa !96
  %23 = and i32 %22, -2
  %switch.not = icmp eq i32 %23, 2
  br i1 %switch.not, label %24, label %38

24:                                               ; preds = %21
  call void @llvm.lifetime.start.p0(i64 16, ptr nonnull %5) #7
  %.024.in = getelementptr inbounds nuw i8, ptr %1, i64 16
  %.024 = load i64, ptr %.024.in, align 8, !tbaa !98
  %25 = tail call ptr @H5I_object(i64 noundef %.024) #7
  %26 = icmp eq ptr %25, null
  br i1 %26, label %27, label %31

27:                                               ; preds = %24
  %28 = load i64, ptr @H5E_VOL_g, align 8, !tbaa !3
  %29 = load i64, ptr @H5E_BADTYPE_g, align 8, !tbaa !3
  %30 = tail call i32 (ptr, ptr, i32, i64, i64, ptr, ...) @H5E_printf_stack(ptr noundef nonnull @.str, ptr noundef nonnull @__func__.H5VL_file_specific, i32 noundef 4087, i64 noundef %28, i64 noundef %29, ptr noundef nonnull @.str.84) #7
  br label %.thread

31:                                               ; preds = %24
  %32 = call i32 @H5P_peek(ptr noundef nonnull %25, ptr noundef nonnull @.str.85, ptr noundef nonnull %5) #7
  %33 = icmp slt i32 %32, 0
  br i1 %33, label %34, label %48

34:                                               ; preds = %31
  %35 = load i64, ptr @H5E_VOL_g, align 8, !tbaa !3
  %36 = load i64, ptr @H5E_CANTGET_g, align 8, !tbaa !3
  %37 = call i32 (ptr, ptr, i32, i64, i64, ptr, ...) @H5E_printf_stack(ptr noundef nonnull @.str, ptr noundef nonnull @__func__.H5VL_file_specific, i32 noundef 4089, i64 noundef %35, i64 noundef %36, ptr noundef nonnull @.str.86) #7
  br label %.thread

.thread:                                          ; preds = %27, %34
  call void @llvm.lifetime.end.p0(i64 16, ptr nonnull %5) #7
  br label %.thread49

38:                                               ; preds = %21
  %39 = tail call i32 @H5VL_set_vol_wrapper(ptr noundef %0) #7
  %40 = icmp slt i32 %39, 0
  br i1 %40, label %41, label %.thread37

41:                                               ; preds = %38
  %42 = load i64, ptr @H5E_VOL_g, align 8, !tbaa !3
  %43 = load i64, ptr @H5E_CANTSET_g, align 8, !tbaa !3
  %44 = tail call i32 (ptr, ptr, i32, i64, i64, ptr, ...) @H5E_printf_stack(ptr noundef nonnull @.str, ptr noundef nonnull @__func__.H5VL_file_specific, i32 noundef 4100, i64 noundef %42, i64 noundef %43, ptr noundef nonnull @.str.24) #7
  br label %.thread49

.thread37:                                        ; preds = %38
  %45 = getelementptr inbounds nuw i8, ptr %0, i64 8
  %46 = load ptr, ptr %45, align 8, !tbaa !57
  %47 = load ptr, ptr %46, align 8, !tbaa !7
  br label %51

48:                                               ; preds = %31
  %49 = load ptr, ptr %5, align 8, !tbaa !88
  %50 = load ptr, ptr %49, align 8, !tbaa !7
  call void @llvm.lifetime.end.p0(i64 16, ptr nonnull %5) #7
  %.not = icmp eq ptr %0, null
  br i1 %.not, label %53, label %51

51:                                               ; preds = %.thread37, %48
  %.13042 = phi ptr [ %47, %.thread37 ], [ %50, %48 ]
  %52 = load ptr, ptr %0, align 8, !tbaa !55
  br label %53

53:                                               ; preds = %48, %51
  %.13043 = phi ptr [ %.13042, %51 ], [ %50, %48 ]
  %54 = phi ptr [ %52, %51 ], [ null, %48 ]
  %55 = call fastcc i32 @H5VL__file_specific(ptr noundef %54, ptr noundef %.13043, ptr noundef nonnull %1, i64 noundef %2, ptr noundef %3)
  %56 = icmp slt i32 %55, 0
  br i1 %56, label %57, label %61

57:                                               ; preds = %53
  %58 = load i64, ptr @H5E_VOL_g, align 8, !tbaa !3
  %59 = load i64, ptr @H5E_CANTOPERATE_g, align 8, !tbaa !3
  %60 = call i32 (ptr, ptr, i32, i64, i64, ptr, ...) @H5E_printf_stack(ptr noundef nonnull @.str, ptr noundef nonnull @__func__.H5VL_file_specific, i32 noundef 4109, i64 noundef %58, i64 noundef %59, ptr noundef nonnull @.str.94) #7
  br label %61

61:                                               ; preds = %53, %57
  %.026 = phi i32 [ -1, %57 ], [ 0, %53 ]
  br i1 %switch.not, label %.thread49, label %62

62:                                               ; preds = %61
  %63 = call i32 @H5VL_reset_vol_wrapper() #7
  %64 = icmp slt i32 %63, 0
  br i1 %64, label %65, label %.thread49

65:                                               ; preds = %62
  %66 = load i64, ptr @H5E_VOL_g, align 8, !tbaa !3
  %67 = load i64, ptr @H5E_CANTRESET_g, align 8, !tbaa !3
  %68 = call i32 (ptr, ptr, i32, i64, i64, ptr, ...) @H5E_printf_stack(ptr noundef nonnull @.str, ptr noundef nonnull @__func__.H5VL_file_specific, i32 noundef 4114, i64 noundef %66, i64 noundef %67, ptr noundef nonnull @.str.26) #7
  br label %.thread49

.thread49:                                        ; preds = %.thread, %41, %14, %18, %65, %62, %61
  %.025 = phi i32 [ -1, %65 ], [ %.026, %62 ], [ %.026, %61 ], [ 0, %18 ], [ -1, %14 ], [ -1, %41 ], [ -1, %.thread ]
  ret i32 %.025
}